; Function Attrs: mustprogress nofree norecurse nosync nounwind willreturn memory(read, inaccessiblemem: none) uwtable
define hidden noundef nofpclass(nan inf) float @_ZNK4ncnn9ParamDict3getEif(ptr noundef nonnull readonly align 8 captures(none) dereferenceable(16) %0, i32 noundef %1, float noundef nofpclass(nan inf) %2) local_unnamed_addr #9 align 2 {
  %4 = getelementptr inbounds nuw i8, ptr %0, i64 8
  %5 = load ptr, ptr %4, align 8, !tbaa !21
  %6 = sext i32 %1 to i64
  %7 = getelementptr inbounds [32 x %struct.anon], ptr %5, i64 0, i64 %6
  %8 = load i32, ptr %7, align 8, !tbaa !24
  %.not = icmp eq i32 %8, 0
  br i1 %.not, label %12, label %9

9:                                                ; preds = %3
  %10 = getelementptr inbounds nuw i8, ptr %7, i64 4
  %11 = load float, ptr %10, align 4, !tbaa !20
  br label %12

12:                                               ; preds = %3, %9
  %13 = phi fast float [ %11, %9 ], [ %2, %3 ]
  ret float %13
}